; ModuleID = '10/2242.c'
source_filename = "10/2242.c"
target datalayout = "e-m:e-p270:32:32-p271:32:32-p272:64:64-i64:64-f80:128-n8:16:32:64-S128"
target triple = "x86_64-pc-linux-gnu"

@.str = private unnamed_addr constant [3 x i8] c"%d\00", align 1

; Function Attrs: noinline nounwind uwtable
define dso_local i32 @main() #0 {
  %1 = alloca i32, align 4
  %2 = alloca i32, align 4
  %3 = alloca i32, align 4
  %4 = alloca i32, align 4
  %5 = alloca i32, align 4
  %6 = alloca [25 x i32], align 16
  %7 = alloca [25 x i32], align 16
  %8 = alloca i32, align 4
  %9 = alloca i32, align 4
  store i32 0, i32* %1, align 4
  %10 = call i32 (i8*, ...) @__isoc99_scanf(i8* getelementptr inbounds ([3 x i8], [3 x i8]* @.str, i64 0, i64 0), i32* %5)
  store i32 0, i32* %2, align 4
  br label %11

11:                                               ; preds = %20, %0
  %12 = load i32, i32* %2, align 4
  %13 = load i32, i32* %5, align 4
  %14 = icmp slt i32 %12, %13
  br i1 %14, label %15, label %23

15:                                               ; preds = %11
  %16 = load i32, i32* %2, align 4
  %17 = sext i32 %16 to i64
  %18 = getelementptr inbounds [25 x i32], [25 x i32]* %6, i64 0, i64 %17
  %19 = call i32 (i8*, ...) @__isoc99_scanf(i8* getelementptr inbounds ([3 x i8], [3 x i8]* @.str, i64 0, i64 0), i32* %18)
  br label %20

20:                                               ; preds = %15
  %21 = load i32, i32* %2, align 4
  %22 = add nsw i32 %21, 1
  store i32 %22, i32* %2, align 4
  br label %11

23:                                               ; preds = %11
  %24 = load i32, i32* %2, align 4
  store i32 %24, i32* %3, align 4
  %25 = load i32, i32* %3, align 4
  %26 = sub nsw i32 %25, 1
  store i32 %26, i32* %2, align 4
  br label %27

27:                                               ; preds = %69, %23
  %28 = load i32, i32* %2, align 4
  %29 = icmp sge i32 %28, 0
  br i1 %29, label %30, label %72

30:                                               ; preds = %27
  store i32 0, i32* %8, align 4
  %31 = load i32, i32* %3, align 4
  %32 = sub nsw i32 %31, 1
  store i32 %32, i32* %4, align 4
  br label %33

33:                                               ; preds = %60, %30
  %34 = load i32, i32* %4, align 4
  %35 = load i32, i32* %2, align 4
  %36 = icmp sgt i32 %34, %35
  br i1 %36, label %37, label %63

37:                                               ; preds = %33
  %38 = load i32, i32* %2, align 4
  %39 = sext i32 %38 to i64
  %40 = getelementptr inbounds [25 x i32], [25 x i32]* %6, i64 0, i64 %39
  %41 = load i32, i32* %40, align 4
  %42 = load i32, i32* %4, align 4
  %43 = sext i32 %42 to i64
  %44 = getelementptr inbounds [25 x i32], [25 x i32]* %6, i64 0, i64 %43
  %45 = load i32, i32* %44, align 4
  %46 = icmp sge i32 %41, %45
  br i1 %46, label %47, label %59

47:                                               ; preds = %37
  %48 = load i32, i32* %4, align 4
  %49 = sext i32 %48 to i64
  %50 = getelementptr inbounds [25 x i32], [25 x i32]* %7, i64 0, i64 %49
  %51 = load i32, i32* %50, align 4
  %52 = load i32, i32* %8, align 4
  %53 = icmp sgt i32 %51, %52
  br i1 %53, label %54, label %59

54:                                               ; preds = %47
  %55 = load i32, i32* %4, align 4
  %56 = sext i32 %55 to i64
  %57 = getelementptr inbounds [25 x i32], [25 x i32]* %7, i64 0, i64 %56
  %58 = load i32, i32* %57, align 4
  store i32 %58, i32* %8, align 4
  br label %59

59:                                               ; preds = %54, %47, %37
  br label %60

60:                                               ; preds = %59
  %61 = load i32, i32* %4, align 4
  %62 = add nsw i32 %61, -1
  store i32 %62, i32* %4, align 4
  br label %33

63:                                               ; preds = %33
  %64 = load i32, i32* %8, align 4
  %65 = add nsw i32 %64, 1
  %66 = load i32, i32* %2, align 4
  %67 = sext i32 %66 to i64
  %68 = getelementptr inbounds [25 x i32], [25 x i32]* %7, i64 0, i64 %67
  store i32 %65, i32* %68, align 4
  br label %69

69:                                               ; preds = %63
  %70 = load i32, i32* %2, align 4
  %71 = add nsw i32 %70, -1
  store i32 %71, i32* %2, align 4
  br label %27

72:                                               ; preds = %27
  %73 = getelementptr inbounds [25 x i32], [25 x i32]* %7, i64 0, i64 0
  %74 = load i32, i32* %73, align 16
  store i32 %74, i32* %9, align 4
  store i32 1, i32* %2, align 4
  br label %75

75:                                               ; preds = %92, %72
  %76 = load i32, i32* %2, align 4
  %77 = load i32, i32* %3, align 4
  %78 = icmp slt i32 %76, %77
  br i1 %78, label %79, label %95

79:                                               ; preds = %75
  %80 = load i32, i32* %2, align 4
  %81 = sext i32 %80 to i64
  %82 = getelementptr inbounds [25 x i32], [25 x i32]* %7, i64 0, i64 %81
  %83 = load i32, i32* %82, align 4
  %84 = load i32, i32* %9, align 4
  %85 = icmp sgt i32 %83, %84
  br i1 %85, label %86, label %91

86:                                               ; preds = %79
  %87 = load i32, i32* %2, align 4
  %88 = sext i32 %87 to i64
  %89 = getelementptr inbounds [25 x i32], [25 x i32]* %7, i64 0, i64 %88
  %90 = load i32, i32* %89, align 4
  store i32 %90, i32* %9, align 4
  br label %91

91:                                               ; preds = %86, %79
  br label %92

92:                                               ; preds = %91
  %93 = load i32, i32* %2, align 4
  %94 = add nsw i32 %93, 1
  store i32 %94, i32* %2, align 4
  br label %75

95:                                               ; preds = %75
  %96 = load i32, i32* %9, align 4
  %97 = call i32 (i8*, ...) @printf(i8* getelementptr inbounds ([3 x i8], [3 x i8]* @.str, i64 0, i64 0), i32 %96)
  %98 = load i32, i32* %1, align 4
  ret i32 %98
}

declare dso_local i32 @__isoc99_scanf(i8*, ...) #1

declare dso_local i32 @printf(i8*, ...) #1


!llvm.module.flags = !{!0}
!llvm.ident = !{!1}

!0 = !{i32 1, !"wchar_size", i32 4}
!1 = !{!"clang version 10.0.0-4ubuntu1 "}
